target datalayout = "e-m:e-p270:32:32-p271:32:32-p272:64:64-i64:64-i128:128-f80:128-n8:16:32:64-S128"
target triple = "x86_64-pc-linux-gnu"

%struct.SDL_VideoDevice = type { ptr, ptr, ptr, ptr, ptr, ptr, ptr, ptr, ptr, ptr, ptr, ptr, ptr, ptr, ptr, ptr, ptr, ptr, ptr, ptr, ptr, ptr, ptr, ptr, ptr, ptr, ptr, ptr, ptr, ptr, ptr, ptr, ptr, ptr, ptr, ptr, ptr, ptr, ptr, ptr, ptr, ptr, ptr, ptr, ptr, ptr, ptr, ptr, ptr, ptr, ptr, ptr, ptr, ptr, ptr, ptr, ptr, ptr, ptr, ptr, ptr, ptr, ptr, ptr, ptr, ptr, ptr, ptr, ptr, ptr, ptr, ptr, ptr, ptr, ptr, ptr, ptr, ptr, ptr, ptr, ptr, ptr, ptr, ptr, ptr, ptr, ptr, ptr, ptr, ptr, ptr, ptr, ptr, ptr, ptr, ptr, ptr, i64, i8, i8, i8, ptr, i32, ptr, %struct.SDL_Rect, ptr, ptr, i32, ptr, ptr, ptr, ptr, i64, ptr, i8, i32, i32, %struct.anon, ptr, ptr, ptr, ptr, ptr, ptr, %struct.SDL_AtomicInt, %struct.SDL_AtomicInt, i8, %struct.anon.0, ptr, ptr, ptr, ptr, ptr }
%struct.SDL_Rect = type { i32, i32, i32, i32 }
%struct.anon = type { i32, i32, i32, i32, i32, i32, i32, i32, i32, i32, i32, i32, i32, i32, i32, i32, i32, i32, i32, i32, i32, i32, i32, i32, i32, i32, i32, i32, i32, [256 x i8], ptr }
%struct.SDL_AtomicInt = type { i32 }
%struct.anon.0 = type { ptr, ptr, i32, [256 x i8], ptr }
%struct.VkExtensionProperties = type { [256 x i8], i32 }
%struct.SDL_VideoData = type { ptr, ptr, i32, ptr, i64, i32, ptr, i32, i64, i64, %struct.X11_ClipboardData, %struct.X11_ClipboardData, ptr, i64, %struct.X11_SettingsData, i8, %struct.anon.1, [256 x i32], i8, i8, i8, i64, i8, %struct.SDL_Point, i32, ptr, i32, i8, i32, %struct.anon.2, i8, i64, ptr, ptr, i8, i8, i8 }
%struct.X11_ClipboardData = type { ptr, ptr, ptr, i64, i32 }
%struct.X11_SettingsData = type { ptr }
%struct.anon.1 = type { i64, i64, i64, i64, i64, i64, i64, i64, i64, i64, i64, i64, i64, i64, i64, i64, i64, i64, i64, i64, i64, i64, i64, i64, i64, i64, i64, i64, i64, i64, i64, i64, i64, i64, i64, i64, i64, i64, i64, i64, i64, i64, i64, i64, i64, i64, i64, i64, i64, i64, i64, i64, i64 }
%struct.SDL_Point = type { i32, i32 }
%struct.anon.2 = type { ptr, i32, i32, i32, i16, i32, i32 }

@.str = private unnamed_addr constant [22 x i8] c"Vulkan already loaded\00", align 1
@.str.1 = private unnamed_addr constant [19 x i8] c"SDL_VULKAN_LIBRARY\00", align 1
@.str.2 = private unnamed_addr constant [15 x i8] c"libvulkan.so.1\00", align 1
@.str.3 = private unnamed_addr constant [22 x i8] c"vkGetInstanceProcAddr\00", align 1
@.str.4 = private unnamed_addr constant [39 x i8] c"vkEnumerateInstanceExtensionProperties\00", align 1
@.str.5 = private unnamed_addr constant [15 x i8] c"VK_KHR_surface\00", align 1
@.str.6 = private unnamed_addr constant [19 x i8] c"VK_KHR_xcb_surface\00", align 1
@.str.7 = private unnamed_addr constant [20 x i8] c"VK_KHR_xlib_surface\00", align 1
@.str.8 = private unnamed_addr constant [64 x i8] c"Installed Vulkan doesn't implement the VK_KHR_surface extension\00", align 1
@.str.9 = private unnamed_addr constant [111 x i8] c"Installed Vulkan doesn't implement either the VK_KHR_xcb_surfaceextension or the VK_KHR_xlib_surface extension\00", align 1
@.str.10 = private unnamed_addr constant [20 x i8] c"SDL_X11_XCB_LIBRARY\00", align 1
@.str.11 = private unnamed_addr constant [16 x i8] c"libX11-xcb.so.1\00", align 1
@.str.12 = private unnamed_addr constant [18 x i8] c"XGetXCBConnection\00", align 1

; Function Attrs: nounwind uwtable
define hidden zeroext i1 @X11_Vulkan_LoadLibrary(ptr noundef %0, ptr noundef %1) #0 {
  %3 = alloca i1, align 1
  %4 = alloca ptr, align 8
  %5 = alloca ptr, align 8
  %6 = alloca ptr, align 8
  %7 = alloca ptr, align 8
  %8 = alloca i32, align 4
  %9 = alloca i8, align 1
  %10 = alloca i8, align 1
  %11 = alloca i8, align 1
  %12 = alloca ptr, align 8
  %13 = alloca i32, align 4
  %14 = alloca i32, align 4
  %15 = alloca ptr, align 8
  store ptr %0, ptr %4, align 8
  store ptr %1, ptr %5, align 8
  call void @llvm.lifetime.start.p0(i64 8, ptr %6) #4
  %16 = load ptr, ptr %4, align 8
  %17 = getelementptr inbounds nuw %struct.SDL_VideoDevice, ptr %16, i32 0, i32 128
  %18 = load ptr, ptr %17, align 8
  store ptr %18, ptr %6, align 8
  call void @llvm.lifetime.start.p0(i64 8, ptr %7) #4
  store ptr null, ptr %7, align 8
  call void @llvm.lifetime.start.p0(i64 4, ptr %8) #4
  store i32 0, ptr %8, align 4
  call void @llvm.lifetime.start.p0(i64 1, ptr %9) #4
  store i8 0, ptr %9, align 1
  call void @llvm.lifetime.start.p0(i64 1, ptr %10) #4
  store i8 0, ptr %10, align 1
  call void @llvm.lifetime.start.p0(i64 1, ptr %11) #4
  store i8 0, ptr %11, align 1
  call void @llvm.lifetime.start.p0(i64 8, ptr %12) #4
  store ptr null, ptr %12, align 8
  call void @llvm.lifetime.start.p0(i64 4, ptr %13) #4
  %19 = load ptr, ptr %4, align 8
  %20 = getelementptr inbounds nuw %struct.SDL_VideoDevice, ptr %19, i32 0, i32 127
  %21 = getelementptr inbounds nuw %struct.anon.0, ptr %20, i32 0, i32 4
  %22 = load ptr, ptr %21, align 8
  %23 = icmp ne ptr %22, null
  br i1 %23, label %24, label %26

24:                                               ; preds = %2
  %25 = call zeroext i1 (ptr, ...) @SDL_SetError_REAL(ptr noundef @.str)
  store i1 %25, ptr %3, align 1
  store i32 1, ptr %14, align 4
  br label %196

26:                                               ; preds = %2
  %27 = load ptr, ptr %5, align 8
  %28 = icmp ne ptr %27, null
  br i1 %28, label %31, label %29

29:                                               ; preds = %26
  %30 = call ptr @SDL_GetHint_REAL(ptr noundef @.str.1)
  store ptr %30, ptr %5, align 8
  br label %31

31:                                               ; preds = %29, %26
  %32 = load ptr, ptr %5, align 8
  %33 = icmp ne ptr %32, null
  br i1 %33, label %35, label %34

34:                                               ; preds = %31
  store ptr @.str.2, ptr %5, align 8
  br label %35

35:                                               ; preds = %34, %31
  %36 = load ptr, ptr %5, align 8
  %37 = call ptr @SDL_LoadObject_REAL(ptr noundef %36)
  %38 = load ptr, ptr %4, align 8
  %39 = getelementptr inbounds nuw %struct.SDL_VideoDevice, ptr %38, i32 0, i32 127
  %40 = getelementptr inbounds nuw %struct.anon.0, ptr %39, i32 0, i32 4
  store ptr %37, ptr %40, align 8
  %41 = load ptr, ptr %4, align 8
  %42 = getelementptr inbounds nuw %struct.SDL_VideoDevice, ptr %41, i32 0, i32 127
  %43 = getelementptr inbounds nuw %struct.anon.0, ptr %42, i32 0, i32 4
  %44 = load ptr, ptr %43, align 8
  %45 = icmp ne ptr %44, null
  br i1 %45, label %47, label %46

46:                                               ; preds = %35
  store i1 false, ptr %3, align 1
  store i32 1, ptr %14, align 4
  br label %196

47:                                               ; preds = %35
  %48 = load ptr, ptr %4, align 8
  %49 = getelementptr inbounds nuw %struct.SDL_VideoDevice, ptr %48, i32 0, i32 127
  %50 = getelementptr inbounds nuw %struct.anon.0, ptr %49, i32 0, i32 3
  %51 = getelementptr inbounds [256 x i8], ptr %50, i64 0, i64 0
  %52 = load ptr, ptr %5, align 8
  %53 = call i64 @SDL_strlcpy_REAL(ptr noundef %51, ptr noundef %52, i64 noundef 256)
  %54 = load ptr, ptr %4, align 8
  %55 = getelementptr inbounds nuw %struct.SDL_VideoDevice, ptr %54, i32 0, i32 127
  %56 = getelementptr inbounds nuw %struct.anon.0, ptr %55, i32 0, i32 4
  %57 = load ptr, ptr %56, align 8
  %58 = call ptr @SDL_LoadFunction_REAL(ptr noundef %57, ptr noundef @.str.3)
  store ptr %58, ptr %12, align 8
  %59 = load ptr, ptr %12, align 8
  %60 = icmp ne ptr %59, null
  br i1 %60, label %62, label %61

61:                                               ; preds = %47
  br label %188

62:                                               ; preds = %47
  %63 = load ptr, ptr %12, align 8
  %64 = load ptr, ptr %4, align 8
  %65 = getelementptr inbounds nuw %struct.SDL_VideoDevice, ptr %64, i32 0, i32 127
  %66 = getelementptr inbounds nuw %struct.anon.0, ptr %65, i32 0, i32 0
  store ptr %63, ptr %66, align 8
  %67 = load ptr, ptr %4, align 8
  %68 = getelementptr inbounds nuw %struct.SDL_VideoDevice, ptr %67, i32 0, i32 127
  %69 = getelementptr inbounds nuw %struct.anon.0, ptr %68, i32 0, i32 0
  %70 = load ptr, ptr %69, align 8
  %71 = call ptr %70(ptr noundef null, ptr noundef @.str.4)
  %72 = load ptr, ptr %4, align 8
  %73 = getelementptr inbounds nuw %struct.SDL_VideoDevice, ptr %72, i32 0, i32 127
  %74 = getelementptr inbounds nuw %struct.anon.0, ptr %73, i32 0, i32 1
  store ptr %71, ptr %74, align 8
  %75 = load ptr, ptr %4, align 8
  %76 = getelementptr inbounds nuw %struct.SDL_VideoDevice, ptr %75, i32 0, i32 127
  %77 = getelementptr inbounds nuw %struct.anon.0, ptr %76, i32 0, i32 1
  %78 = load ptr, ptr %77, align 8
  %79 = icmp ne ptr %78, null
  br i1 %79, label %81, label %80

80:                                               ; preds = %62
  br label %188

81:                                               ; preds = %62
  %82 = load ptr, ptr %4, align 8
  %83 = getelementptr inbounds nuw %struct.SDL_VideoDevice, ptr %82, i32 0, i32 127
  %84 = getelementptr inbounds nuw %struct.anon.0, ptr %83, i32 0, i32 1
  %85 = load ptr, ptr %84, align 8
  %86 = call ptr @SDL_Vulkan_CreateInstanceExtensionsList(ptr noundef %85, ptr noundef %8)
  store ptr %86, ptr %7, align 8
  %87 = load ptr, ptr %7, align 8
  %88 = icmp ne ptr %87, null
  br i1 %88, label %90, label %89

89:                                               ; preds = %81
  br label %188

90:                                               ; preds = %81
  store i32 0, ptr %13, align 4
  br label %91

91:                                               ; preds = %128, %90
  %92 = load i32, ptr %13, align 4
  %93 = load i32, ptr %8, align 4
  %94 = icmp ult i32 %92, %93
  br i1 %94, label %95, label %131

95:                                               ; preds = %91
  %96 = load ptr, ptr %7, align 8
  %97 = load i32, ptr %13, align 4
  %98 = zext i32 %97 to i64
  %99 = getelementptr inbounds nuw %struct.VkExtensionProperties, ptr %96, i64 %98
  %100 = getelementptr inbounds nuw %struct.VkExtensionProperties, ptr %99, i32 0, i32 0
  %101 = getelementptr inbounds [256 x i8], ptr %100, i64 0, i64 0
  %102 = call i32 @SDL_strcmp_REAL(ptr noundef @.str.5, ptr noundef %101)
  %103 = icmp eq i32 %102, 0
  br i1 %103, label %104, label %105

104:                                              ; preds = %95
  store i8 1, ptr %9, align 1
  br label %127

105:                                              ; preds = %95
  %106 = load ptr, ptr %7, align 8
  %107 = load i32, ptr %13, align 4
  %108 = zext i32 %107 to i64
  %109 = getelementptr inbounds nuw %struct.VkExtensionProperties, ptr %106, i64 %108
  %110 = getelementptr inbounds nuw %struct.VkExtensionProperties, ptr %109, i32 0, i32 0
  %111 = getelementptr inbounds [256 x i8], ptr %110, i64 0, i64 0
  %112 = call i32 @SDL_strcmp_REAL(ptr noundef @.str.6, ptr noundef %111)
  %113 = icmp eq i32 %112, 0
  br i1 %113, label %114, label %115

114:                                              ; preds = %105
  store i8 1, ptr %11, align 1
  br label %126

115:                                              ; preds = %105
  %116 = load ptr, ptr %7, align 8
  %117 = load i32, ptr %13, align 4
  %118 = zext i32 %117 to i64
  %119 = getelementptr inbounds nuw %struct.VkExtensionProperties, ptr %116, i64 %118
  %120 = getelementptr inbounds nuw %struct.VkExtensionProperties, ptr %119, i32 0, i32 0
  %121 = getelementptr inbounds [256 x i8], ptr %120, i64 0, i64 0
  %122 = call i32 @SDL_strcmp_REAL(ptr noundef @.str.7, ptr noundef %121)
  %123 = icmp eq i32 %122, 0
  br i1 %123, label %124, label %125

124:                                              ; preds = %115
  store i8 1, ptr %10, align 1
  br label %125

125:                                              ; preds = %124, %115
  br label %126

126:                                              ; preds = %125, %114
  br label %127

127:                                              ; preds = %126, %104
  br label %128

128:                                              ; preds = %127
  %129 = load i32, ptr %13, align 4
  %130 = add i32 %129, 1
  store i32 %130, ptr %13, align 4
  br label %91, !llvm.loop !3

131:                                              ; preds = %91
  %132 = load ptr, ptr %7, align 8
  call void @SDL_free_REAL(ptr noundef %132)
  %133 = load i8, ptr %9, align 1, !range !5, !noundef !6
  %134 = trunc i8 %133 to i1
  br i1 %134, label %137, label %135

135:                                              ; preds = %131
  %136 = call zeroext i1 (ptr, ...) @SDL_SetError_REAL(ptr noundef @.str.8)
  br label %188

137:                                              ; preds = %131
  %138 = load i8, ptr %10, align 1, !range !5, !noundef !6
  %139 = trunc i8 %138 to i1
  br i1 %139, label %140, label %143

140:                                              ; preds = %137
  %141 = load ptr, ptr %6, align 8
  %142 = getelementptr inbounds nuw %struct.SDL_VideoData, ptr %141, i32 0, i32 32
  store ptr null, ptr %142, align 8
  br label %187

143:                                              ; preds = %137
  %144 = load i8, ptr %11, align 1, !range !5, !noundef !6
  %145 = trunc i8 %144 to i1
  br i1 %145, label %148, label %146

146:                                              ; preds = %143
  %147 = call zeroext i1 (ptr, ...) @SDL_SetError_REAL(ptr noundef @.str.9)
  br label %188

148:                                              ; preds = %143
  call void @llvm.lifetime.start.p0(i64 8, ptr %15) #4
  %149 = call ptr @SDL_GetHint_REAL(ptr noundef @.str.10)
  store ptr %149, ptr %15, align 8
  %150 = load ptr, ptr %15, align 8
  %151 = icmp ne ptr %150, null
  br i1 %151, label %152, label %156

152:                                              ; preds = %148
  %153 = load ptr, ptr %15, align 8
  %154 = load i8, ptr %153, align 1
  %155 = icmp ne i8 %154, 0
  br i1 %155, label %157, label %156

156:                                              ; preds = %152, %148
  store ptr @.str.11, ptr %15, align 8
  br label %157

157:                                              ; preds = %156, %152
  %158 = load ptr, ptr %15, align 8
  %159 = call ptr @SDL_LoadObject_REAL(ptr noundef %158)
  %160 = load ptr, ptr %6, align 8
  %161 = getelementptr inbounds nuw %struct.SDL_VideoData, ptr %160, i32 0, i32 32
  store ptr %159, ptr %161, align 8
  %162 = load ptr, ptr %6, align 8
  %163 = getelementptr inbounds nuw %struct.SDL_VideoData, ptr %162, i32 0, i32 32
  %164 = load ptr, ptr %163, align 8
  %165 = icmp ne ptr %164, null
  br i1 %165, label %167, label %166

166:                                              ; preds = %157
  store i32 2, ptr %14, align 4
  br label %183

167:                                              ; preds = %157
  %168 = load ptr, ptr %6, align 8
  %169 = getelementptr inbounds nuw %struct.SDL_VideoData, ptr %168, i32 0, i32 32
  %170 = load ptr, ptr %169, align 8
  %171 = call ptr @SDL_LoadFunction_REAL(ptr noundef %170, ptr noundef @.str.12)
  %172 = load ptr, ptr %6, align 8
  %173 = getelementptr inbounds nuw %struct.SDL_VideoData, ptr %172, i32 0, i32 33
  store ptr %171, ptr %173, align 8
  %174 = load ptr, ptr %6, align 8
  %175 = getelementptr inbounds nuw %struct.SDL_VideoData, ptr %174, i32 0, i32 33
  %176 = load ptr, ptr %175, align 8
  %177 = icmp ne ptr %176, null
  br i1 %177, label %182, label %178

178:                                              ; preds = %167
  %179 = load ptr, ptr %6, align 8
  %180 = getelementptr inbounds nuw %struct.SDL_VideoData, ptr %179, i32 0, i32 32
  %181 = load ptr, ptr %180, align 8
  call void @SDL_UnloadObject_REAL(ptr noundef %181)
  store i32 2, ptr %14, align 4
  br label %183

182:                                              ; preds = %167
  store i32 0, ptr %14, align 4
  br label %183

183:                                              ; preds = %178, %166, %182
  call void @llvm.lifetime.end.p0(i64 8, ptr %15) #4
  %184 = load i32, ptr %14, align 4
  switch i32 %184, label %196 [
    i32 0, label %185
    i32 2, label %188
  ]

185:                                              ; preds = %183
  br label %186

186:                                              ; preds = %185
  br label %187

187:                                              ; preds = %186, %140
  store i1 true, ptr %3, align 1
  store i32 1, ptr %14, align 4
  br label %196

188:                                              ; preds = %183, %146, %135, %89, %80, %61
  %189 = load ptr, ptr %4, align 8
  %190 = getelementptr inbounds nuw %struct.SDL_VideoDevice, ptr %189, i32 0, i32 127
  %191 = getelementptr inbounds nuw %struct.anon.0, ptr %190, i32 0, i32 4
  %192 = load ptr, ptr %191, align 8
  call void @SDL_UnloadObject_REAL(ptr noundef %192)
  %193 = load ptr, ptr %4, align 8
  %194 = getelementptr inbounds nuw %struct.SDL_VideoDevice, ptr %193, i32 0, i32 127
  %195 = getelementptr inbounds nuw %struct.anon.0, ptr %194, i32 0, i32 4
  store ptr null, ptr %195, align 8
  store i1 false, ptr %3, align 1
  store i32 1, ptr %14, align 4
  br label %196

196:                                              ; preds = %188, %187, %183, %46, %24
  call void @llvm.lifetime.end.p0(i64 4, ptr %13) #4
  call void @llvm.lifetime.end.p0(i64 8, ptr %12) #4
  call void @llvm.lifetime.end.p0(i64 1, ptr %11) #4
  call void @llvm.lifetime.end.p0(i64 1, ptr %10) #4
  call void @llvm.lifetime.end.p0(i64 1, ptr %9) #4
  call void @llvm.lifetime.end.p0(i64 4, ptr %8) #4
  call void @llvm.lifetime.end.p0(i64 8, ptr %7) #4
  call void @llvm.lifetime.end.p0(i64 8, ptr %6) #4
  %197 = load i1, ptr %3, align 1
  ret i1 %197
}