; Function Attrs: nounwind uwtable
define hidden zeroext i1 @X11_Vulkan_LoadLibrary(ptr noundef %0, ptr noundef %1) local_unnamed_addr #0 {
  %3 = alloca i32, align 4
  %4 = getelementptr inbounds nuw i8, ptr %0, i64 1656
  %5 = load ptr, ptr %4, align 8
  call void @llvm.lifetime.start.p0(i64 4, ptr nonnull %3) #5
  store i32 0, ptr %3, align 4
  %6 = getelementptr inbounds nuw i8, ptr %0, i64 1368
  %7 = getelementptr inbounds nuw i8, ptr %0, i64 1648
  %8 = load ptr, ptr %7, align 8
  %.not = icmp eq ptr %8, null
  br i1 %.not, label %11, label %9

9:                                                ; preds = %2
  %10 = tail call zeroext i1 (ptr, ...) @SDL_SetError_REAL(ptr noundef nonnull @.str) #5
  br label %62

11:                                               ; preds = %2
  %.not58 = icmp eq ptr %1, null
  br i1 %.not58, label %12, label %14

12:                                               ; preds = %11
  %13 = tail call ptr @SDL_GetHint_REAL(ptr noundef nonnull @.str.1) #5
  br label %14

14:                                               ; preds = %12, %11
  %.051 = phi ptr [ %1, %11 ], [ %13, %12 ]
  %.not59 = icmp eq ptr %.051, null
  %spec.store.select = select i1 %.not59, ptr @.str.2, ptr %.051
  %15 = tail call ptr @SDL_LoadObject_REAL(ptr noundef nonnull %spec.store.select) #5
  store ptr %15, ptr %7, align 8
  %.not60 = icmp eq ptr %15, null
  br i1 %.not60, label %62, label %16

16:                                               ; preds = %14
  %17 = getelementptr inbounds nuw i8, ptr %0, i64 1388
  %18 = tail call i64 @SDL_strlcpy_REAL(ptr noundef nonnull %17, ptr noundef nonnull %spec.store.select, i64 noundef 256) #5
  %19 = load ptr, ptr %7, align 8
  %20 = tail call ptr @SDL_LoadFunction_REAL(ptr noundef %19, ptr noundef nonnull @.str.3) #5
  %.not61 = icmp eq ptr %20, null
  br i1 %.not61, label %.thread, label %21

21:                                               ; preds = %16
  store ptr %20, ptr %6, align 8
  %22 = tail call ptr %20(ptr noundef null, ptr noundef nonnull @.str.4) #5
  %23 = getelementptr inbounds nuw i8, ptr %0, i64 1376
  store ptr %22, ptr %23, align 8
  %.not62 = icmp eq ptr %22, null
  br i1 %.not62, label %.thread, label %24

24:                                               ; preds = %21
  %25 = call ptr @SDL_Vulkan_CreateInstanceExtensionsList(ptr noundef nonnull %22, ptr noundef nonnull %3) #5
  %.not63 = icmp eq ptr %25, null
  br i1 %.not63, label %.thread, label %.preheader

.preheader:                                       ; preds = %24
  %26 = load i32, ptr %3, align 4
  %.not77 = icmp eq i32 %26, 0
  br i1 %.not77, label %._crit_edge.thread, label %.lr.ph

._crit_edge.thread:                               ; preds = %.preheader
  call void @SDL_free_REAL(ptr noundef nonnull %25) #5
  br label %40

.lr.ph:                                           ; preds = %.preheader, %36
  %indvars.iv = phi i64 [ %indvars.iv.next, %36 ], [ 0, %.preheader ]
  %.04573 = phi i1 [ %.1, %36 ], [ false, %.preheader ]
  %.04672 = phi i1 [ %.147, %36 ], [ false, %.preheader ]
  %.04871 = phi i1 [ %.149, %36 ], [ false, %.preheader ]
  %27 = getelementptr inbounds nuw %struct.VkExtensionProperties, ptr %25, i64 %indvars.iv
  %28 = call i32 @SDL_strcmp_REAL(ptr noundef nonnull @.str.5, ptr noundef nonnull %27) #5
  %29 = icmp eq i32 %28, 0
  br i1 %29, label %36, label %30

30:                                               ; preds = %.lr.ph
  %31 = call i32 @SDL_strcmp_REAL(ptr noundef nonnull @.str.6, ptr noundef nonnull %27) #5
  %32 = icmp eq i32 %31, 0
  br i1 %32, label %36, label %33

33:                                               ; preds = %30
  %34 = call i32 @SDL_strcmp_REAL(ptr noundef nonnull @.str.7, ptr noundef nonnull %27) #5
  %35 = icmp eq i32 %34, 0
  %spec.select = select i1 %35, i1 true, i1 %.04672
  br label %36

36:                                               ; preds = %33, %30, %.lr.ph
  %.149 = phi i1 [ true, %.lr.ph ], [ %.04871, %30 ], [ %.04871, %33 ]
  %.147 = phi i1 [ %.04672, %.lr.ph ], [ %.04672, %30 ], [ %spec.select, %33 ]
  %.1 = phi i1 [ %.04573, %.lr.ph ], [ true, %30 ], [ %.04573, %33 ]
  %indvars.iv.next = add nuw nsw i64 %indvars.iv, 1
  %37 = load i32, ptr %3, align 4
  %38 = zext i32 %37 to i64
  %39 = icmp samesign ult i64 %indvars.iv.next, %38
  br i1 %39, label %.lr.ph, label %._crit_edge, !llvm.loop !3

._crit_edge:                                      ; preds = %36
  call void @SDL_free_REAL(ptr noundef nonnull %25) #5
  br i1 %.149, label %42, label %40

40:                                               ; preds = %._crit_edge.thread, %._crit_edge
  %41 = call zeroext i1 (ptr, ...) @SDL_SetError_REAL(ptr noundef nonnull @.str.8) #5
  br label %.thread

42:                                               ; preds = %._crit_edge
  br i1 %.147, label %43, label %45

43:                                               ; preds = %42
  %44 = getelementptr inbounds nuw i8, ptr %5, i64 1744
  store ptr null, ptr %44, align 8
  br label %62

45:                                               ; preds = %42
  br i1 %.1, label %48, label %46

46:                                               ; preds = %45
  %47 = call zeroext i1 (ptr, ...) @SDL_SetError_REAL(ptr noundef nonnull @.str.9) #5
  br label %.thread

48:                                               ; preds = %45
  %49 = call ptr @SDL_GetHint_REAL(ptr noundef nonnull @.str.10) #5
  %.not64 = icmp eq ptr %49, null
  br i1 %.not64, label %52, label %50

50:                                               ; preds = %48
  %51 = load i8, ptr %49, align 1
  %.not65 = icmp eq i8 %51, 0
  br i1 %.not65, label %52, label %53

52:                                               ; preds = %50, %48
  br label %53

53:                                               ; preds = %52, %50
  %.0 = phi ptr [ %49, %50 ], [ @.str.11, %52 ]
  %54 = call ptr @SDL_LoadObject_REAL(ptr noundef nonnull %.0) #5
  %55 = getelementptr inbounds nuw i8, ptr %5, i64 1744
  store ptr %54, ptr %55, align 8
  %.not66 = icmp eq ptr %54, null
  br i1 %.not66, label %.thread, label %56

56:                                               ; preds = %53
  %57 = call ptr @SDL_LoadFunction_REAL(ptr noundef nonnull %54, ptr noundef nonnull @.str.12) #5
  %58 = getelementptr inbounds nuw i8, ptr %5, i64 1752
  store ptr %57, ptr %58, align 8
  %.not67 = icmp eq ptr %57, null
  br i1 %.not67, label %59, label %62

59:                                               ; preds = %56
  %60 = load ptr, ptr %55, align 8
  call void @SDL_UnloadObject_REAL(ptr noundef %60) #5
  br label %.thread

.thread:                                          ; preds = %53, %59, %24, %21, %16, %46, %40
  %61 = load ptr, ptr %7, align 8
  call void @SDL_UnloadObject_REAL(ptr noundef %61) #5
  store ptr null, ptr %7, align 8
  br label %62

62:                                               ; preds = %56, %43, %14, %.thread, %9
  %.050 = phi i1 [ %10, %9 ], [ false, %.thread ], [ false, %14 ], [ true, %43 ], [ true, %56 ]
  call void @llvm.lifetime.end.p0(i64 4, ptr nonnull %3) #5
  ret i1 %.050
}